target datalayout = "e-m:e-p270:32:32-p271:32:32-p272:64:64-i64:64-i128:128-f80:128-n8:16:32:64-S128"
target triple = "x86_64-pc-linux-gnu"

%struct._zend_refcounted_h = type { i32, %union.anon }
%union.anon = type { i32 }
%struct._zend_string = type { %struct._zend_refcounted_h, i64, i64, [1 x i8] }

@.str.172 = private unnamed_addr constant [71 x i8] c"opcache.max_accelerated_files is set below the required minimum (%d).\0A\00", align 1
@.str.173 = private unnamed_addr constant [60 x i8] c"opcache.max_accelerated_files is set above the limit (%d).\0A\00", align 1

; Function Attrs: nounwind uwtable
define internal i32 @OnUpdateMaxAcceleratedFiles(ptr noundef %0, ptr noundef %1, ptr noundef %2, ptr noundef %3, ptr noundef %4, i32 noundef %5) #0 {
  %7 = alloca i32, align 4
  %8 = alloca ptr, align 8
  %9 = alloca ptr, align 8
  %10 = alloca ptr, align 8
  %11 = alloca ptr, align 8
  %12 = alloca ptr, align 8
  %13 = alloca i32, align 4
  %14 = alloca ptr, align 8
  %15 = alloca i64, align 8
  store ptr %0, ptr %8, align 8
  store ptr %1, ptr %9, align 8
  store ptr %2, ptr %10, align 8
  store ptr %3, ptr %11, align 8
  store ptr %4, ptr %12, align 8
  store i32 %5, ptr %13, align 4
  %16 = load ptr, ptr %11, align 8
  %17 = load ptr, ptr %10, align 8
  %18 = ptrtoint ptr %17 to i64
  %19 = getelementptr inbounds i8, ptr %16, i64 %18
  store ptr %19, ptr %14, align 8
  %20 = load ptr, ptr %9, align 8
  %21 = getelementptr inbounds %struct._zend_string, ptr %20, i32 0, i32 3
  %22 = getelementptr inbounds [1 x i8], ptr %21, i64 0, i64 0
  %23 = call i32 @atoi(ptr noundef %22) #11
  %24 = sext i32 %23 to i64
  store i64 %24, ptr %15, align 8
  %25 = load i64, ptr %15, align 8
  %26 = icmp slt i64 %25, 200
  br i1 %26, label %27, label %28

27:                                               ; preds = %6
  call void (i32, ptr, ...) @zend_accel_error(i32 noundef 2, ptr noundef @.str.172, i32 noundef 200)
  store i32 -1, ptr %7, align 4
  br label %35

28:                                               ; preds = %6
  %29 = load i64, ptr %15, align 8
  %30 = icmp sgt i64 %29, 1000000
  br i1 %30, label %31, label %32

31:                                               ; preds = %28
  call void (i32, ptr, ...) @zend_accel_error(i32 noundef 2, ptr noundef @.str.173, i32 noundef 1000000)
  store i32 -1, ptr %7, align 4
  br label %35

32:                                               ; preds = %28
  %33 = load i64, ptr %15, align 8
  %34 = load ptr, ptr %14, align 8
  store i64 %33, ptr %34, align 8
  store i32 0, ptr %7, align 4
  br label %35

35:                                               ; preds = %32, %31, %27
  %36 = load i32, ptr %7, align 4
  ret i32 %36
}