; Function Attrs: nounwind uwtable
define internal noundef i32 @OnUpdateMaxAcceleratedFiles(ptr nocapture readnone %0, ptr nocapture noundef readonly %1, ptr noundef %2, ptr nocapture noundef writeonly %3, ptr nocapture readnone %4, i32 %5) #0 {
  %7 = ptrtoint ptr %2 to i64
  %8 = getelementptr inbounds i8, ptr %3, i64 %7
  %9 = getelementptr inbounds i8, ptr %1, i64 24
  %10 = tail call i32 @atoi(ptr nocapture noundef nonnull %9) #15
  %11 = sext i32 %10 to i64
  %12 = icmp slt i32 %10, 200
  br i1 %12, label %13, label %14

13:                                               ; preds = %6
  tail call void (i32, ptr, ...) @zend_accel_error(i32 noundef 2, ptr noundef nonnull @.str.172, i32 noundef 200) #14
  br label %18

14:                                               ; preds = %6
  %15 = icmp ugt i32 %10, 1000000
  br i1 %15, label %16, label %17

16:                                               ; preds = %14
  tail call void (i32, ptr, ...) @zend_accel_error(i32 noundef 2, ptr noundef nonnull @.str.173, i32 noundef 1000000) #14
  br label %18

17:                                               ; preds = %14
  store i64 %11, ptr %8, align 8
  br label %18

18:                                               ; preds = %17, %16, %13
  %.0 = phi i32 [ -1, %13 ], [ -1, %16 ], [ 0, %17 ]
  ret i32 %.0
}